target datalayout = "e-m:e-p270:32:32-p271:32:32-p272:64:64-i64:64-i128:128-f80:128-n8:16:32:64-S128"
target triple = "x86_64-pc-linux-gnu"

%struct.dt_iop_roi_t = type { i32, i32, i32, i32, float }

; Function Attrs: nounwind uwtable
define void @dt_interpolation_resample_roi_1c(ptr noundef %0, ptr noundef %1, ptr noundef %2, ptr noundef %3, ptr noundef %4) #0 {
  %6 = alloca ptr, align 8
  %7 = alloca ptr, align 8
  %8 = alloca ptr, align 8
  %9 = alloca ptr, align 8
  %10 = alloca ptr, align 8
  %11 = alloca %struct.dt_iop_roi_t, align 4
  %12 = alloca %struct.dt_iop_roi_t, align 4
  store ptr %0, ptr %6, align 8, !tbaa !6
  store ptr %1, ptr %7, align 8, !tbaa !11
  store ptr %2, ptr %8, align 8, !tbaa !28
  store ptr %3, ptr %9, align 8, !tbaa !11
  store ptr %4, ptr %10, align 8, !tbaa !28
  call void @llvm.lifetime.start.p0(i64 20, ptr %11) #11
  %13 = load ptr, ptr %8, align 8, !tbaa !28
  call void @llvm.memcpy.p0.p0.i64(ptr align 4 %11, ptr align 4 %13, i64 20, i1 false), !tbaa.struct !71
  %14 = getelementptr inbounds nuw %struct.dt_iop_roi_t, ptr %11, i32 0, i32 1
  store i32 0, ptr %14, align 4, !tbaa !70
  %15 = getelementptr inbounds nuw %struct.dt_iop_roi_t, ptr %11, i32 0, i32 0
  store i32 0, ptr %15, align 4, !tbaa !68
  call void @llvm.lifetime.start.p0(i64 20, ptr %12) #11
  %16 = load ptr, ptr %10, align 8, !tbaa !28
  call void @llvm.memcpy.p0.p0.i64(ptr align 4 %12, ptr align 4 %16, i64 20, i1 false), !tbaa.struct !71
  %17 = getelementptr inbounds nuw %struct.dt_iop_roi_t, ptr %12, i32 0, i32 1
  store i32 0, ptr %17, align 4, !tbaa !70
  %18 = getelementptr inbounds nuw %struct.dt_iop_roi_t, ptr %12, i32 0, i32 0
  store i32 0, ptr %18, align 4, !tbaa !68
  %19 = load ptr, ptr %6, align 8, !tbaa !6
  %20 = load ptr, ptr %7, align 8, !tbaa !11
  %21 = load ptr, ptr %9, align 8, !tbaa !11
  call void @dt_interpolation_resample_1c(ptr noundef %19, ptr noundef %20, ptr noundef %11, ptr noundef %21, ptr noundef %12)
  call void @llvm.lifetime.end.p0(i64 20, ptr %12) #11
  call void @llvm.lifetime.end.p0(i64 20, ptr %11) #11
  ret void
}